; Function Attrs: mustprogress uwtable
define void @_ZNK8QuantLib30MultiStepPeriodCapletSwaptions5cloneEv(ptr dead_on_unwind noalias nocapture writable writeonly sret(%"class.std::unique_ptr") align 8 %agg.result, ptr noundef nonnull align 8 dereferenceable(336) %this) unnamed_addr #3 align 2 personality ptr @__gxx_personality_v0 {
entry:
  %call = tail call noalias noundef nonnull dereferenceable(336) ptr @_Znwm(i64 noundef 336) #22
  invoke void @_ZN8QuantLib30MultiStepPeriodCapletSwaptionsC2ERKS0_(ptr noundef nonnull align 8 dereferenceable(336) %call, ptr noundef nonnull align 8 dereferenceable(336) %this)
          to label %invoke.cont unwind label %lpad

invoke.cont:                                      ; preds = %entry
  store ptr %call, ptr %agg.result, align 8, !tbaa !18
  ret void

lpad:                                             ; preds = %entry
  %0 = landingpad { ptr, i32 }
          cleanup
  tail call void @_ZdlPvm(ptr noundef nonnull %call, i64 noundef 336) #23
  resume { ptr, i32 } %0
}